; Function Attrs: mustprogress nounwind uwtable
define noundef zeroext i1 @_ZN4base12SharedMemory5MapAtElm(ptr noundef nonnull align 8 captures(none) dereferenceable(40) %0, i64 noundef %1, i64 noundef %2) local_unnamed_addr #2 align 2 personality ptr @__gxx_personality_v0 {
  %4 = load i32, ptr %0, align 8, !tbaa !15
  %5 = icmp eq i32 %4, -1
  %6 = icmp ugt i64 %2, 2147483647
  %or.cond = or i1 %6, %5
  br i1 %or.cond, label %19, label %7

7:                                                ; preds = %3
  %8 = getelementptr inbounds nuw i8, ptr %0, i64 16
  %9 = load ptr, ptr %8, align 8, !tbaa !23
  %.not = icmp eq ptr %9, null
  br i1 %.not, label %10, label %19

10:                                               ; preds = %7
  %11 = getelementptr inbounds nuw i8, ptr %0, i64 24
  %12 = load i8, ptr %11, align 8, !tbaa !22, !range !28, !noundef !29
  %13 = trunc nuw i8 %12 to i1
  %14 = select i1 %13, i32 1, i32 3
  %15 = tail call ptr @mmap(ptr noundef null, i64 noundef %2, i32 noundef %14, i32 noundef 1, i32 noundef %4, i64 noundef %1) #22
  store ptr %15, ptr %8, align 8, !tbaa !23
  %magicptr = ptrtoint ptr %15 to i64
  switch i64 %magicptr, label %16 [
    i64 -1, label %18
    i64 0, label %18
  ]

16:                                               ; preds = %10
  %17 = getelementptr inbounds nuw i8, ptr %0, i64 8
  store i64 %2, ptr %17, align 8, !tbaa !24
  br label %19

18:                                               ; preds = %10, %10
  store ptr null, ptr %8, align 8, !tbaa !23
  br label %19

19:                                               ; preds = %16, %18, %7, %3
  %.0 = phi i1 [ false, %3 ], [ false, %7 ], [ false, %18 ], [ true, %16 ]
  ret i1 %.0
}